target datalayout = "e-m:e-p270:32:32-p271:32:32-p272:64:64-i64:64-i128:128-f80:128-n8:16:32:64-S128"
target triple = "x86_64-pc-linux-gnu"

%struct._zval_struct = type { %union._zend_value, %union.anon, %union.anon.2 }
%union._zend_value = type { i64 }
%union.anon = type { i32 }
%union.anon.2 = type { i32 }
%struct._zend_stack = type { i32, i32, i32, ptr }
%union._zend_function = type { %struct._zend_op_array }
%struct._zend_op_array = type { i8, [3 x i8], i32, ptr, ptr, ptr, i32, i32, ptr, ptr, ptr, ptr, i32, ptr, i32, i32, i32, ptr, ptr, ptr, ptr, ptr, i32, i32, ptr, ptr, ptr, i32, i32, i32, i32, ptr, ptr, [6 x ptr] }
%struct._zend_array = type { %struct._zend_refcounted_h, %union.anon.6, i32, %union.anon.8, i32, i32, i32, i32, i64, ptr }
%struct._zend_refcounted_h = type { i32, %union.anon.4 }
%union.anon.4 = type { i32 }
%union.anon.6 = type { i32 }
%union.anon.8 = type { ptr }
%struct._zend_compiler_globals = type { %struct._zend_stack, ptr, ptr, i32, ptr, ptr, ptr, ptr, i8, i8, i8, i8, i8, %struct._zend_llist, ptr, i8, i8, i8, i8, ptr, i32, i32, %struct._zend_oparray_context, %struct._zend_file_context, ptr, %struct._zend_array, ptr, i64, i8, i8, i8, ptr, ptr, %struct._zend_stack, ptr, i32, ptr, ptr, i64, i64, ptr, ptr, ptr, ptr, i32, ptr, i32, %struct._zend_stack }
%struct._zend_llist = type { ptr, ptr, i64, i64, ptr, i8, ptr }
%struct._zend_oparray_context = type { ptr, ptr, i32, i32, i32, i32, i32, i32, i32, ptr, ptr, ptr, i32, i8 }
%struct._zend_file_context = type { %struct._zend_declarables, ptr, i8, i8, ptr, ptr, ptr, %struct._zend_array }
%struct._zend_declarables = type { i64 }
%struct._zend_closure = type { %struct._zend_object, %union._zend_function, %struct._zval_struct, ptr, ptr }
%struct._zend_object = type { %struct._zend_refcounted_h, i32, i32, ptr, ptr, ptr, [1 x %struct._zval_struct] }

@compiler_globals = external global %struct._zend_compiler_globals, align 8

; Function Attrs: nounwind uwtable
define hidden void @zend_closure_bind_var(ptr noundef %0, ptr noundef %1, ptr noundef %2) #0 {
  %4 = alloca ptr, align 8
  %5 = alloca ptr, align 8
  %6 = alloca ptr, align 8
  %7 = alloca ptr, align 8
  %8 = alloca ptr, align 8
  store ptr %0, ptr %4, align 8, !tbaa !9
  store ptr %1, ptr %5, align 8, !tbaa !52
  store ptr %2, ptr %6, align 8, !tbaa !9
  call void @llvm.lifetime.start.p0(i64 8, ptr %7) #11
  %9 = load ptr, ptr %4, align 8, !tbaa !9
  %10 = getelementptr inbounds nuw %struct._zval_struct, ptr %9, i32 0, i32 0
  %11 = load ptr, ptr %10, align 8, !tbaa !20
  store ptr %11, ptr %7, align 8, !tbaa !40
  call void @llvm.lifetime.start.p0(i64 8, ptr %8) #11
  %12 = load ptr, ptr %7, align 8, !tbaa !40
  %13 = getelementptr inbounds nuw %struct._zend_closure, ptr %12, i32 0, i32 1
  %14 = getelementptr inbounds nuw %struct._zend_op_array, ptr %13, i32 0, i32 18
  %15 = load ptr, ptr %14, align 8, !tbaa !20
  %16 = ptrtoint ptr %15 to i64
  %17 = and i64 %16, 1
  %18 = icmp ne i64 %17, 0
  br i1 %18, label %19, label %28

19:                                               ; preds = %3
  %20 = load ptr, ptr getelementptr inbounds nuw (%struct._zend_compiler_globals, ptr @compiler_globals, i32 0, i32 37), align 8, !tbaa !124
  %21 = load ptr, ptr %7, align 8, !tbaa !40
  %22 = getelementptr inbounds nuw %struct._zend_closure, ptr %21, i32 0, i32 1
  %23 = getelementptr inbounds nuw %struct._zend_op_array, ptr %22, i32 0, i32 18
  %24 = load ptr, ptr %23, align 8, !tbaa !20
  %25 = ptrtoint ptr %24 to i64
  %26 = getelementptr inbounds i8, ptr %20, i64 %25
  %27 = load ptr, ptr %26, align 8, !tbaa !67
  br label %33

28:                                               ; preds = %3
  %29 = load ptr, ptr %7, align 8, !tbaa !40
  %30 = getelementptr inbounds nuw %struct._zend_closure, ptr %29, i32 0, i32 1
  %31 = getelementptr inbounds nuw %struct._zend_op_array, ptr %30, i32 0, i32 18
  %32 = load ptr, ptr %31, align 8, !tbaa !20
  br label %33

33:                                               ; preds = %28, %19
  %34 = phi ptr [ %27, %19 ], [ %32, %28 ]
  store ptr %34, ptr %8, align 8, !tbaa !26
  %35 = load ptr, ptr %8, align 8, !tbaa !26
  %36 = load ptr, ptr %5, align 8, !tbaa !52
  %37 = load ptr, ptr %6, align 8, !tbaa !9
  %38 = call ptr @zend_hash_update(ptr noundef %35, ptr noundef %36, ptr noundef %37)
  call void @llvm.lifetime.end.p0(i64 8, ptr %8) #11
  call void @llvm.lifetime.end.p0(i64 8, ptr %7) #11
  ret void
}