; Function Attrs: nounwind uwtable
define hidden void @zend_closure_bind_var(ptr noundef readonly captures(none) %0, ptr noundef %1, ptr noundef %2) local_unnamed_addr #0 {
  %4 = load ptr, ptr %0, align 8, !tbaa !15
  %5 = getelementptr inbounds nuw i8, ptr %4, i64 168
  %6 = load ptr, ptr %5, align 8, !tbaa !15
  %7 = ptrtoint ptr %6 to i64
  %8 = and i64 %7, 1
  %.not = icmp eq i64 %8, 0
  br i1 %.not, label %13, label %9

9:                                                ; preds = %3
  %10 = load ptr, ptr getelementptr inbounds nuw (i8, ptr @compiler_globals, i64 512), align 8, !tbaa !102
  %11 = getelementptr inbounds i8, ptr %10, i64 %7
  %12 = load ptr, ptr %11, align 8, !tbaa !89
  br label %13

13:                                               ; preds = %3, %9
  %14 = phi ptr [ %12, %9 ], [ %6, %3 ]
  %15 = tail call ptr @zend_hash_update(ptr noundef %14, ptr noundef %1, ptr noundef %2) #13
  ret void
}